target datalayout = "e-m:e-p270:32:32-p271:32:32-p272:64:64-i64:64-i128:128-f80:128-n8:16:32:64-S128"
target triple = "x86_64-pc-linux-gnu"

%struct.test_info = type { ptr, ptr, ptr, i32, i8 }

@all_tests = internal global [1024 x %struct.test_info] zeroinitializer, align 16
@num_tests = internal global i32 0, align 4
@num_test_cases = internal global i32 0, align 4

; Function Attrs: nounwind uwtable
define void @add_all_tests(ptr noundef %0, ptr noundef %1, i32 noundef %2, i32 noundef %3) #0 {
  %5 = alloca ptr, align 8
  %6 = alloca ptr, align 8
  %7 = alloca i32, align 4
  %8 = alloca i32, align 4
  store ptr %0, ptr %5, align 8, !tbaa !3
  store ptr %1, ptr %6, align 8, !tbaa !8
  store i32 %2, ptr %7, align 4, !tbaa !9
  store i32 %3, ptr %8, align 4, !tbaa !9
  %9 = load ptr, ptr %5, align 8, !tbaa !3
  %10 = load i32, ptr @num_tests, align 4, !tbaa !9
  %11 = sext i32 %10 to i64
  %12 = getelementptr inbounds [1024 x %struct.test_info], ptr @all_tests, i64 0, i64 %11
  %13 = getelementptr inbounds nuw %struct.test_info, ptr %12, i32 0, i32 0
  store ptr %9, ptr %13, align 16, !tbaa !11
  %14 = load ptr, ptr %6, align 8, !tbaa !8
  %15 = load i32, ptr @num_tests, align 4, !tbaa !9
  %16 = sext i32 %15 to i64
  %17 = getelementptr inbounds [1024 x %struct.test_info], ptr @all_tests, i64 0, i64 %16
  %18 = getelementptr inbounds nuw %struct.test_info, ptr %17, i32 0, i32 2
  store ptr %14, ptr %18, align 16, !tbaa !15
  %19 = load i32, ptr %7, align 4, !tbaa !9
  %20 = load i32, ptr @num_tests, align 4, !tbaa !9
  %21 = sext i32 %20 to i64
  %22 = getelementptr inbounds [1024 x %struct.test_info], ptr @all_tests, i64 0, i64 %21
  %23 = getelementptr inbounds nuw %struct.test_info, ptr %22, i32 0, i32 3
  store i32 %19, ptr %23, align 8, !tbaa !14
  %24 = load i32, ptr %8, align 4, !tbaa !9
  %25 = load i32, ptr @num_tests, align 4, !tbaa !9
  %26 = sext i32 %25 to i64
  %27 = getelementptr inbounds [1024 x %struct.test_info], ptr @all_tests, i64 0, i64 %26
  %28 = getelementptr inbounds nuw %struct.test_info, ptr %27, i32 0, i32 4
  %29 = trunc i32 %24 to i8
  %30 = load i8, ptr %28, align 4
  %31 = and i8 %29, 1
  %32 = and i8 %30, -2
  %33 = or i8 %32, %31
  store i8 %33, ptr %28, align 4
  %34 = load i32, ptr @num_tests, align 4, !tbaa !9
  %35 = add nsw i32 %34, 1
  store i32 %35, ptr @num_tests, align 4, !tbaa !9
  %36 = load i32, ptr %8, align 4, !tbaa !9
  %37 = icmp ne i32 %36, 0
  br i1 %37, label %38, label %41

38:                                               ; preds = %4
  %39 = load i32, ptr @num_test_cases, align 4, !tbaa !9
  %40 = add nsw i32 %39, 1
  store i32 %40, ptr @num_test_cases, align 4, !tbaa !9
  br label %45

41:                                               ; preds = %4
  %42 = load i32, ptr %7, align 4, !tbaa !9
  %43 = load i32, ptr @num_test_cases, align 4, !tbaa !9
  %44 = add nsw i32 %43, %42
  store i32 %44, ptr @num_test_cases, align 4, !tbaa !9
  br label %45

45:                                               ; preds = %41, %38
  ret void
}