; Function Attrs: mustprogress nofree norecurse nosync nounwind willreturn memory(readwrite, argmem: none, inaccessiblemem: none) uwtable
define void @add_all_tests(ptr noundef %0, ptr noundef %1, i32 noundef %2, i32 noundef %3) local_unnamed_addr #0 {
  %5 = load i32, ptr @num_tests, align 4, !tbaa !3
  %6 = sext i32 %5 to i64
  %7 = getelementptr inbounds [1024 x %struct.test_info], ptr @all_tests, i64 0, i64 %6
  store ptr %0, ptr %7, align 16, !tbaa !7
  %8 = getelementptr inbounds [1024 x %struct.test_info], ptr @all_tests, i64 0, i64 %6, i32 2
  store ptr %1, ptr %8, align 16, !tbaa !13
  %9 = getelementptr inbounds [1024 x %struct.test_info], ptr @all_tests, i64 0, i64 %6, i32 3
  store i32 %2, ptr %9, align 8, !tbaa !12
  %10 = getelementptr inbounds [1024 x %struct.test_info], ptr @all_tests, i64 0, i64 %6, i32 4
  %11 = trunc i32 %3 to i8
  %12 = load i8, ptr %10, align 4
  %13 = and i8 %11, 1
  %14 = and i8 %12, -2
  %15 = or disjoint i8 %14, %13
  store i8 %15, ptr %10, align 4
  %16 = add nsw i32 %5, 1
  store i32 %16, ptr @num_tests, align 4, !tbaa !3
  %.not = icmp eq i32 %3, 0
  %17 = load i32, ptr @num_test_cases, align 4
  %storemerge.v = select i1 %.not, i32 %2, i32 1
  %storemerge = add nsw i32 %17, %storemerge.v
  store i32 %storemerge, ptr @num_test_cases, align 4, !tbaa !3
  ret void
}